target datalayout = "e-m:e-p270:32:32-p271:32:32-p272:64:64-i64:64-i128:128-f80:128-n8:16:32:64-S128"
target triple = "x86_64-pc-linux-gnu"

%struct.b2Vec2 = type { float, float }

; Function Attrs: nounwind uwtable
define zeroext i1 @b2IsValidVec2(<2 x float> %0) #2 {
  %2 = alloca i1, align 1
  %3 = alloca %struct.b2Vec2, align 4
  store <2 x float> %0, ptr %3, align 4
  %4 = getelementptr inbounds nuw %struct.b2Vec2, ptr %3, i32 0, i32 0
  %5 = load float, ptr %4, align 4, !tbaa !7
  %6 = call i1 @llvm.is.fpclass.f32(float %5, i32 3)
  br i1 %6, label %11, label %7

7:                                                ; preds = %1
  %8 = getelementptr inbounds nuw %struct.b2Vec2, ptr %3, i32 0, i32 1
  %9 = load float, ptr %8, align 4, !tbaa !9
  %10 = call i1 @llvm.is.fpclass.f32(float %9, i32 3)
  br i1 %10, label %11, label %12

11:                                               ; preds = %7, %1
  store i1 false, ptr %2, align 1
  br label %34

12:                                               ; preds = %7
  %13 = getelementptr inbounds nuw %struct.b2Vec2, ptr %3, i32 0, i32 0
  %14 = load float, ptr %13, align 4, !tbaa !7
  %15 = call float @llvm.fabs.f32(float %14) #7
  %16 = fcmp oeq float %15, 0x7FF0000000000000
  %17 = bitcast float %14 to i32
  %18 = icmp slt i32 %17, 0
  %19 = select i1 %18, i32 -1, i32 1
  %20 = select i1 %16, i32 %19, i32 0
  %21 = icmp ne i32 %20, 0
  br i1 %21, label %32, label %22

22:                                               ; preds = %12
  %23 = getelementptr inbounds nuw %struct.b2Vec2, ptr %3, i32 0, i32 1
  %24 = load float, ptr %23, align 4, !tbaa !9
  %25 = call float @llvm.fabs.f32(float %24) #7
  %26 = fcmp oeq float %25, 0x7FF0000000000000
  %27 = bitcast float %24 to i32
  %28 = icmp slt i32 %27, 0
  %29 = select i1 %28, i32 -1, i32 1
  %30 = select i1 %26, i32 %29, i32 0
  %31 = icmp ne i32 %30, 0
  br i1 %31, label %32, label %33

32:                                               ; preds = %22, %12
  store i1 false, ptr %2, align 1
  br label %34

33:                                               ; preds = %22
  store i1 true, ptr %2, align 1
  br label %34

34:                                               ; preds = %33, %32, %11
  %35 = load i1, ptr %2, align 1
  ret i1 %35
}