; Function Attrs: mustprogress nofree norecurse nosync nounwind willreturn memory(none) uwtable
define zeroext i1 @b2IsValidVec2(<2 x float> %0) local_unnamed_addr #2 {
  %.sroa.0.0.vec.extract = extractelement <2 x float> %0, i64 0
  %2 = fcmp uno float %.sroa.0.0.vec.extract, 0.000000e+00
  br i1 %2, label %10, label %3

3:                                                ; preds = %1
  %.sroa.0.4.vec.extract = extractelement <2 x float> %0, i64 1
  %4 = fcmp uno float %.sroa.0.4.vec.extract, 0.000000e+00
  br i1 %4, label %10, label %5

5:                                                ; preds = %3
  %6 = tail call float @llvm.fabs.f32(float %.sroa.0.0.vec.extract) #5
  %7 = fcmp une float %6, 0x7FF0000000000000
  %8 = tail call float @llvm.fabs.f32(float %.sroa.0.4.vec.extract) #5
  %9 = fcmp une float %8, 0x7FF0000000000000
  %or.cond.not = and i1 %7, %9
  br label %10

10:                                               ; preds = %5, %1, %3
  %.0 = phi i1 [ false, %3 ], [ false, %1 ], [ %or.cond.not, %5 ]
  ret i1 %.0
}